target datalayout = "e-m:e-p270:32:32-p271:32:32-p272:64:64-i64:64-i128:128-f80:128-n8:16:32:64-S128"
target triple = "x86_64-pc-linux-gnu"

%class.QString = type { ptr }
%class.PickedPointTreeWidgetItem = type <{ %class.QTreeWidgetItem.base, %"class.vcg::Point3", %"class.vcg::Point3", i8, [3 x i8] }>
%class.QTreeWidgetItem.base = type <{ ptr, i32, [4 x i8], %class.QVector, ptr, ptr, ptr, %class.QList, %class.QFlags }>
%class.QVector = type { ptr }
%class.QList = type { %union.anon }
%union.anon = type { %struct.QListData }
%struct.QListData = type { ptr }
%class.QFlags = type { i32 }
%"class.vcg::Point3" = type { [3 x float] }
%class.PickPointsDialog = type { %class.QDockWidget, i32, %"class.Ui::pickpointsDialog", %"class.std::vector.16", ptr, ptr, i8, %class.QString, ptr, ptr, ptr, i32, ptr, %"class.vcg::Point3", %"class.vcg::Point3", i8, %class.QString }
%class.QDockWidget = type { %class.QWidget }
%class.QWidget = type { %class.QObject, %class.QPaintDevice, ptr }
%class.QObject = type { ptr, %class.QScopedPointer }
%class.QScopedPointer = type { ptr }
%class.QPaintDevice = type { ptr, i16, ptr }
%"class.Ui::pickpointsDialog" = type { %class.Ui_pickpointsDialog }
%class.Ui_pickpointsDialog = type { ptr, ptr, ptr, ptr, ptr, ptr, ptr, ptr, ptr, ptr, ptr, ptr, ptr, ptr, ptr, ptr, ptr, ptr, ptr, ptr, ptr, ptr, ptr, ptr, ptr, ptr, ptr, ptr, ptr, ptr, ptr, ptr, ptr, ptr }
%"class.std::vector.16" = type { %"struct.std::_Vector_base.17" }
%"struct.std::_Vector_base.17" = type { %"struct.std::_Vector_base<PickedPointTreeWidgetItem *, std::allocator<PickedPointTreeWidgetItem *>>::_Vector_impl" }
%"struct.std::_Vector_base<PickedPointTreeWidgetItem *, std::allocator<PickedPointTreeWidgetItem *>>::_Vector_impl" = type { %"struct.std::_Vector_base<PickedPointTreeWidgetItem *, std::allocator<PickedPointTreeWidgetItem *>>::_Vector_impl_data" }
%"struct.std::_Vector_base<PickedPointTreeWidgetItem *, std::allocator<PickedPointTreeWidgetItem *>>::_Vector_impl_data" = type { ptr, ptr, ptr }

; Function Attrs: mustprogress uwtable
define void @_ZN16PickPointsDialog12redrawPointsEv(ptr noundef nonnull align 8 dereferenceable(464) %0) #5 align 2 {
  %2 = alloca ptr, align 8
  store ptr %0, ptr %2, align 8
  %3 = load ptr, ptr %2, align 8
  %4 = getelementptr inbounds %class.PickPointsDialog, ptr %3, i32 0, i32 9
  %5 = load ptr, ptr %4, align 8
  call void @_ZN7QWidget6updateEv(ptr noundef nonnull align 8 dereferenceable(48) %5)
  ret void
}

; Function Attrs: mustprogress nounwind uwtable
define { <2 x float>, float } @_ZN25PickedPointTreeWidgetItem9getNormalEv(ptr noundef nonnull align 8 dereferenceable(85) %0) #4 align 2 {
  %2 = alloca %"class.vcg::Point3", align 4
  %3 = alloca ptr, align 8
  %4 = alloca { <2 x float>, float }, align 8
  store ptr %0, ptr %3, align 8
  %5 = load ptr, ptr %3, align 8
  %6 = getelementptr inbounds %class.PickedPointTreeWidgetItem, ptr %5, i32 0, i32 2
  call void @llvm.memcpy.p0.p0.i64(ptr align 4 %2, ptr align 8 %6, i64 12, i1 false)
  %7 = getelementptr inbounds %"class.vcg::Point3", ptr %2, i32 0, i32 0
  call void @llvm.memcpy.p0.p0.i64(ptr align 8 %4, ptr align 4 %7, i64 12, i1 false)
  %8 = load { <2 x float>, float }, ptr %4, align 8
  ret { <2 x float>, float } %8
}

; Function Attrs: mustprogress nounwind uwtable
define { <2 x float>, float } @_ZN25PickedPointTreeWidgetItem8getPointEv(ptr noundef nonnull align 8 dereferenceable(85) %0) #4 align 2 {
  %2 = alloca %"class.vcg::Point3", align 4
  %3 = alloca ptr, align 8
  %4 = alloca { <2 x float>, float }, align 8
  store ptr %0, ptr %3, align 8
  %5 = load ptr, ptr %3, align 8
  %6 = getelementptr inbounds %class.PickedPointTreeWidgetItem, ptr %5, i32 0, i32 1
  call void @llvm.memcpy.p0.p0.i64(ptr align 4 %2, ptr align 4 %6, i64 12, i1 false)
  %7 = getelementptr inbounds %"class.vcg::Point3", ptr %2, i32 0, i32 0
  call void @llvm.memcpy.p0.p0.i64(ptr align 8 %4, ptr align 4 %7, i64 12, i1 false)
  %8 = load { <2 x float>, float }, ptr %4, align 8
  ret { <2 x float>, float } %8
}

; Function Attrs: mustprogress uwtable
define void @_ZN16PickPointsDialog4undoEv(ptr noundef nonnull align 8 dereferenceable(464) %0) #15 align 2 {
  %2 = alloca ptr, align 8
  %3 = alloca %"class.vcg::Point3", align 4
  %4 = alloca { <2 x float>, float }, align 8
  %5 = alloca %"class.vcg::Point3", align 4
  %6 = alloca { <2 x float>, float }, align 8
  store ptr %0, ptr %2, align 8
  %7 = load ptr, ptr %2, align 8
  %8 = getelementptr inbounds %class.PickPointsDialog, ptr %7, i32 0, i32 12
  %9 = load ptr, ptr %8, align 8
  %10 = icmp ne ptr null, %9
  br i1 %10, label %11, label %26

11:                                               ; preds = %1
  %12 = getelementptr inbounds %class.PickPointsDialog, ptr %7, i32 0, i32 12
  %13 = load ptr, ptr %12, align 8
  %14 = call { <2 x float>, float } @_ZN25PickedPointTreeWidgetItem8getPointEv(ptr noundef nonnull align 8 dereferenceable(85) %13)
  %15 = getelementptr inbounds %"class.vcg::Point3", ptr %3, i32 0, i32 0
  store { <2 x float>, float } %14, ptr %4, align 8
  call void @llvm.memcpy.p0.p0.i64(ptr align 4 %15, ptr align 8 %4, i64 12, i1 false)
  %16 = getelementptr inbounds %class.PickPointsDialog, ptr %7, i32 0, i32 12
  %17 = load ptr, ptr %16, align 8
  %18 = call { <2 x float>, float } @_ZN25PickedPointTreeWidgetItem9getNormalEv(ptr noundef nonnull align 8 dereferenceable(85) %17)
  %19 = getelementptr inbounds %"class.vcg::Point3", ptr %5, i32 0, i32 0
  store { <2 x float>, float } %18, ptr %6, align 8
  call void @llvm.memcpy.p0.p0.i64(ptr align 4 %19, ptr align 8 %6, i64 12, i1 false)
  %20 = getelementptr inbounds %class.PickPointsDialog, ptr %7, i32 0, i32 12
  %21 = load ptr, ptr %20, align 8
  %22 = getelementptr inbounds %class.PickPointsDialog, ptr %7, i32 0, i32 13
  %23 = getelementptr inbounds %class.PickPointsDialog, ptr %7, i32 0, i32 14
  call void @_ZN25PickedPointTreeWidgetItem17setPointAndNormalERN3vcg6Point3IfEES3_(ptr noundef nonnull align 8 dereferenceable(85) %21, ptr noundef nonnull align 4 dereferenceable(12) %22, ptr noundef nonnull align 4 dereferenceable(12) %23)
  %24 = getelementptr inbounds %class.PickPointsDialog, ptr %7, i32 0, i32 13
  call void @llvm.memcpy.p0.p0.i64(ptr align 8 %24, ptr align 4 %3, i64 12, i1 false)
  %25 = getelementptr inbounds %class.PickPointsDialog, ptr %7, i32 0, i32 14
  call void @llvm.memcpy.p0.p0.i64(ptr align 4 %25, ptr align 4 %5, i64 12, i1 false)
  call void @_ZN16PickPointsDialog12redrawPointsEv(ptr noundef nonnull align 8 dereferenceable(464) %7)
  br label %26

26:                                               ; preds = %11, %1
  ret void
}