; Function Attrs: mustprogress uwtable
define void @_ZN16PickPointsDialog4undoEv(ptr nocapture noundef nonnull align 8 dereferenceable(464) %0) local_unnamed_addr #15 align 2 {
  %2 = getelementptr inbounds i8, ptr %0, i64 416
  %3 = load ptr, ptr %2, align 8
  %.not = icmp eq ptr %3, null
  br i1 %.not, label %11, label %4

4:                                                ; preds = %1
  %5 = getelementptr inbounds i8, ptr %3, i64 60
  %.sroa.01.0.copyload.i = load <2 x float>, ptr %5, align 4
  %.sroa.22.0..sroa_idx.i = getelementptr inbounds i8, ptr %3, i64 68
  %.sroa.22.0.copyload.i = load float, ptr %.sroa.22.0..sroa_idx.i, align 4
  %6 = getelementptr inbounds i8, ptr %3, i64 72
  %.sroa.01.0.copyload.i9 = load <2 x float>, ptr %6, align 8
  %.sroa.22.0..sroa_idx.i10 = getelementptr inbounds i8, ptr %3, i64 80
  %.sroa.22.0.copyload.i11 = load float, ptr %.sroa.22.0..sroa_idx.i10, align 8
  %7 = getelementptr inbounds i8, ptr %0, i64 424
  %8 = getelementptr inbounds i8, ptr %0, i64 436
  tail call void @_ZN25PickedPointTreeWidgetItem17setPointAndNormalERN3vcg6Point3IfEES3_(ptr noundef nonnull align 8 dereferenceable(85) %3, ptr noundef nonnull align 4 dereferenceable(12) %7, ptr noundef nonnull align 4 dereferenceable(12) %8)
  store <2 x float> %.sroa.01.0.copyload.i, ptr %7, align 8
  %.sroa.28.0..sroa_idx = getelementptr inbounds i8, ptr %0, i64 432
  store float %.sroa.22.0.copyload.i, ptr %.sroa.28.0..sroa_idx, align 8
  store <2 x float> %.sroa.01.0.copyload.i9, ptr %8, align 4
  %.sroa.22.0..sroa_idx = getelementptr inbounds i8, ptr %0, i64 444
  store float %.sroa.22.0.copyload.i11, ptr %.sroa.22.0..sroa_idx, align 4
  %9 = getelementptr inbounds i8, ptr %0, i64 392
  %10 = load ptr, ptr %9, align 8
  tail call void @_ZN7QWidget6updateEv(ptr noundef nonnull align 8 dereferenceable(48) %10)
  br label %11

11:                                               ; preds = %4, %1
  ret void
}